target datalayout = "e-m:e-p270:32:32-p271:32:32-p272:64:64-i64:64-i128:128-f80:128-n8:16:32:64-S128"
target triple = "x86_64-pc-linux-gnu"

@H5P_CLS_FILE_CREATE_ID_g = external global i64, align 8
@H5_libinit_g = external global i8, align 1
@H5_libterm_g = external global i8, align 1
@.str.1 = private unnamed_addr constant [101 x i8] c"generated/home/dtcxzyw/WorkSpace/Projects/compilers/llvm-opt-benchmark/bench/hdf5/hdf5/src/H5Pfcpl.c\00", align 1
@H5E_FUNC_g = external global i64, align 8
@H5E_CANTINIT_g = external global i64, align 8
@.str.2 = private unnamed_addr constant [30 x i8] c"library initialization failed\00", align 1
@H5E_CANTSET_g = external global i64, align 8
@.str.3 = private unnamed_addr constant [22 x i8] c"can't set API context\00", align 1
@H5E_ARGS_g = external global i64, align 8
@H5E_BADVALUE_g = external global i64, align 8
@H5E_ID_g = external global i64, align 8
@H5E_BADID_g = external global i64, align 8
@.str.6 = private unnamed_addr constant [25 x i8] c"can't find object for ID\00", align 1
@H5E_PLIST_g = external global i64, align 8
@H5E_CANTGET_g = external global i64, align 8
@__func__.H5Pset_sym_k = private unnamed_addr constant [13 x i8] c"H5Pset_sym_k\00", align 1
@.str.18 = private unnamed_addr constant [47 x i8] c"istore IK value exceeds maximum B-tree entries\00", align 1
@.str.19 = private unnamed_addr constant [11 x i8] c"btree_rank\00", align 1
@.str.20 = private unnamed_addr constant [40 x i8] c"can't get rank for btree internal nodes\00", align 1
@.str.21 = private unnamed_addr constant [31 x i8] c"can't set rank for btree nodes\00", align 1
@.str.22 = private unnamed_addr constant [12 x i8] c"symbol_leaf\00", align 1
@.str.23 = private unnamed_addr constant [43 x i8] c"can't set rank for symbol table leaf nodes\00", align 1

; Function Attrs: nounwind uwtable
define i32 @H5Pset_sym_k(i64 noundef %0, i32 noundef %1, i32 noundef %2) #0 {
  %4 = alloca i64, align 8
  %5 = alloca i32, align 4
  %6 = alloca i32, align 4
  %7 = alloca [2 x i32], align 4
  %8 = alloca ptr, align 8
  %9 = alloca i32, align 4
  %10 = alloca i8, align 1
  %11 = alloca i8, align 1
  store i64 %0, ptr %4, align 8
  store i32 %1, ptr %5, align 4
  store i32 %2, ptr %6, align 4
  store i32 0, ptr %9, align 4
  store i8 0, ptr %10, align 1
  store i8 0, ptr %11, align 1
  %12 = load i8, ptr @H5_libinit_g, align 1
  %13 = trunc i8 %12 to i1
  br i1 %13, label %18, label %14

14:                                               ; preds = %3
  %15 = load i8, ptr @H5_libterm_g, align 1
  %16 = trunc i8 %15 to i1
  %17 = xor i1 %16, true
  br label %18

18:                                               ; preds = %14, %3
  %19 = phi i1 [ false, %3 ], [ %17, %14 ]
  %20 = xor i1 %19, true
  %21 = xor i1 %20, true
  %22 = zext i1 %21 to i32
  %23 = sext i32 %22 to i64
  %24 = icmp ne i64 %23, 0
  br i1 %24, label %25, label %49

25:                                               ; preds = %18
  %26 = call i32 @H5_init_library()
  %27 = icmp slt i32 %26, 0
  %28 = xor i1 %27, true
  %29 = xor i1 %28, true
  %30 = zext i1 %29 to i32
  %31 = sext i32 %30 to i64
  %32 = icmp ne i64 %31, 0
  br i1 %32, label %33, label %48

33:                                               ; preds = %25
  br label %34

34:                                               ; preds = %33
  br label %35

35:                                               ; preds = %34
  br label %36

36:                                               ; preds = %35
  %37 = load i64, ptr @H5E_FUNC_g, align 8
  %38 = load i64, ptr @H5E_CANTINIT_g, align 8
  %39 = call i32 (ptr, ptr, i32, i64, i64, ptr, ...) @H5E_printf_stack(ptr noundef @.str.1, ptr noundef @__func__.H5Pset_sym_k, i32 noundef 501, i64 noundef %37, i64 noundef %38, ptr noundef @.str.2)
  br label %40

40:                                               ; preds = %36
  store i8 1, ptr %11, align 1
  %41 = load i8, ptr %11, align 1
  %42 = trunc i8 %41 to i1
  %43 = zext i1 %42 to i8
  store i8 %43, ptr %11, align 1
  br label %44

44:                                               ; preds = %40
  br label %45

45:                                               ; preds = %44
  store i32 -1, ptr %9, align 4
  br label %183

46:                                               ; No predecessors!
  br label %47

47:                                               ; preds = %46
  br label %48

48:                                               ; preds = %47, %25
  br label %49

49:                                               ; preds = %48, %18
  %50 = call i32 @H5CX_push()
  %51 = icmp slt i32 %50, 0
  %52 = xor i1 %51, true
  %53 = xor i1 %52, true
  %54 = zext i1 %53 to i32
  %55 = sext i32 %54 to i64
  %56 = icmp ne i64 %55, 0
  br i1 %56, label %57, label %72

57:                                               ; preds = %49
  br label %58

58:                                               ; preds = %57
  br label %59

59:                                               ; preds = %58
  br label %60

60:                                               ; preds = %59
  %61 = load i64, ptr @H5E_FUNC_g, align 8
  %62 = load i64, ptr @H5E_CANTSET_g, align 8
  %63 = call i32 (ptr, ptr, i32, i64, i64, ptr, ...) @H5E_printf_stack(ptr noundef @.str.1, ptr noundef @__func__.H5Pset_sym_k, i32 noundef 501, i64 noundef %61, i64 noundef %62, ptr noundef @.str.3)
  br label %64

64:                                               ; preds = %60
  store i8 1, ptr %11, align 1
  %65 = load i8, ptr %11, align 1
  %66 = trunc i8 %65 to i1
  %67 = zext i1 %66 to i8
  store i8 %67, ptr %11, align 1
  br label %68

68:                                               ; preds = %64
  br label %69

69:                                               ; preds = %68
  store i32 -1, ptr %9, align 4
  br label %183

70:                                               ; No predecessors!
  br label %71

71:                                               ; preds = %70
  br label %73

72:                                               ; preds = %49
  store i8 1, ptr %10, align 1
  br label %73

73:                                               ; preds = %72, %71
  %74 = call i32 @H5E_clear_stack()
  %75 = load i64, ptr %4, align 8
  %76 = load i64, ptr @H5P_CLS_FILE_CREATE_ID_g, align 8
  %77 = call ptr @H5P_object_verify(i64 noundef %75, i64 noundef %76)
  store ptr %77, ptr %8, align 8
  %78 = icmp eq ptr null, %77
  br i1 %78, label %79, label %94

79:                                               ; preds = %73
  br label %80

80:                                               ; preds = %79
  br label %81

81:                                               ; preds = %80
  br label %82

82:                                               ; preds = %81
  %83 = load i64, ptr @H5E_ID_g, align 8
  %84 = load i64, ptr @H5E_BADID_g, align 8
  %85 = call i32 (ptr, ptr, i32, i64, i64, ptr, ...) @H5E_printf_stack(ptr noundef @.str.1, ptr noundef @__func__.H5Pset_sym_k, i32 noundef 505, i64 noundef %83, i64 noundef %84, ptr noundef @.str.6)
  br label %86

86:                                               ; preds = %82
  store i8 1, ptr %11, align 1
  %87 = load i8, ptr %11, align 1
  %88 = trunc i8 %87 to i1
  %89 = zext i1 %88 to i8
  store i8 %89, ptr %11, align 1
  br label %90

90:                                               ; preds = %86
  br label %91

91:                                               ; preds = %90
  store i32 -1, ptr %9, align 4
  br label %183

92:                                               ; No predecessors!
  br label %93

93:                                               ; preds = %92
  br label %94

94:                                               ; preds = %93, %73
  %95 = load i32, ptr %5, align 4
  %96 = icmp ugt i32 %95, 0
  br i1 %96, label %97, label %159

97:                                               ; preds = %94
  %98 = load i32, ptr %5, align 4
  %99 = mul i32 %98, 2
  %100 = icmp uge i32 %99, 65536
  br i1 %100, label %101, label %116

101:                                              ; preds = %97
  br label %102

102:                                              ; preds = %101
  br label %103

103:                                              ; preds = %102
  br label %104

104:                                              ; preds = %103
  %105 = load i64, ptr @H5E_ARGS_g, align 8
  %106 = load i64, ptr @H5E_BADVALUE_g, align 8
  %107 = call i32 (ptr, ptr, i32, i64, i64, ptr, ...) @H5E_printf_stack(ptr noundef @.str.1, ptr noundef @__func__.H5Pset_sym_k, i32 noundef 510, i64 noundef %105, i64 noundef %106, ptr noundef @.str.18)
  br label %108

108:                                              ; preds = %104
  store i8 1, ptr %11, align 1
  %109 = load i8, ptr %11, align 1
  %110 = trunc i8 %109 to i1
  %111 = zext i1 %110 to i8
  store i8 %111, ptr %11, align 1
  br label %112

112:                                              ; preds = %108
  br label %113

113:                                              ; preds = %112
  store i32 -1, ptr %9, align 4
  br label %183

114:                                              ; No predecessors!
  br label %115

115:                                              ; preds = %114
  br label %116

116:                                              ; preds = %115, %97
  %117 = load ptr, ptr %8, align 8
  %118 = getelementptr inbounds [2 x i32], ptr %7, i64 0, i64 0
  %119 = call i32 @H5P_get(ptr noundef %117, ptr noundef @.str.19, ptr noundef %118)
  %120 = icmp slt i32 %119, 0
  br i1 %120, label %121, label %136

121:                                              ; preds = %116
  br label %122

122:                                              ; preds = %121
  br label %123

123:                                              ; preds = %122
  br label %124

124:                                              ; preds = %123
  %125 = load i64, ptr @H5E_PLIST_g, align 8
  %126 = load i64, ptr @H5E_CANTGET_g, align 8
  %127 = call i32 (ptr, ptr, i32, i64, i64, ptr, ...) @H5E_printf_stack(ptr noundef @.str.1, ptr noundef @__func__.H5Pset_sym_k, i32 noundef 513, i64 noundef %125, i64 noundef %126, ptr noundef @.str.20)
  br label %128

128:                                              ; preds = %124
  store i8 1, ptr %11, align 1
  %129 = load i8, ptr %11, align 1
  %130 = trunc i8 %129 to i1
  %131 = zext i1 %130 to i8
  store i8 %131, ptr %11, align 1
  br label %132

132:                                              ; preds = %128
  br label %133

133:                                              ; preds = %132
  store i32 -1, ptr %9, align 4
  br label %183

134:                                              ; No predecessors!
  br label %135

135:                                              ; preds = %134
  br label %136

136:                                              ; preds = %135, %116
  %137 = load i32, ptr %5, align 4
  %138 = getelementptr inbounds [2 x i32], ptr %7, i64 0, i64 0
  store i32 %137, ptr %138, align 4
  %139 = load ptr, ptr %8, align 8
  %140 = getelementptr inbounds [2 x i32], ptr %7, i64 0, i64 0
  %141 = call i32 @H5P_set(ptr noundef %139, ptr noundef @.str.19, ptr noundef %140)
  %142 = icmp slt i32 %141, 0
  br i1 %142, label %143, label %158

143:                                              ; preds = %136
  br label %144

144:                                              ; preds = %143
  br label %145

145:                                              ; preds = %144
  br label %146

146:                                              ; preds = %145
  %147 = load i64, ptr @H5E_PLIST_g, align 8
  %148 = load i64, ptr @H5E_CANTSET_g, align 8
  %149 = call i32 (ptr, ptr, i32, i64, i64, ptr, ...) @H5E_printf_stack(ptr noundef @.str.1, ptr noundef @__func__.H5Pset_sym_k, i32 noundef 516, i64 noundef %147, i64 noundef %148, ptr noundef @.str.21)
  br label %150

150:                                              ; preds = %146
  store i8 1, ptr %11, align 1
  %151 = load i8, ptr %11, align 1
  %152 = trunc i8 %151 to i1
  %153 = zext i1 %152 to i8
  store i8 %153, ptr %11, align 1
  br label %154

154:                                              ; preds = %150
  br label %155

155:                                              ; preds = %154
  store i32 -1, ptr %9, align 4
  br label %183

156:                                              ; No predecessors!
  br label %157

157:                                              ; preds = %156
  br label %158

158:                                              ; preds = %157, %136
  br label %159

159:                                              ; preds = %158, %94
  %160 = load i32, ptr %6, align 4
  %161 = icmp ugt i32 %160, 0
  br i1 %161, label %162, label %182

162:                                              ; preds = %159
  %163 = load ptr, ptr %8, align 8
  %164 = call i32 @H5P_set(ptr noundef %163, ptr noundef @.str.22, ptr noundef %6)
  %165 = icmp slt i32 %164, 0
  br i1 %165, label %166, label %181

166:                                              ; preds = %162
  br label %167

167:                                              ; preds = %166
  br label %168

168:                                              ; preds = %167
  br label %169

169:                                              ; preds = %168
  %170 = load i64, ptr @H5E_PLIST_g, align 8
  %171 = load i64, ptr @H5E_CANTSET_g, align 8
  %172 = call i32 (ptr, ptr, i32, i64, i64, ptr, ...) @H5E_printf_stack(ptr noundef @.str.1, ptr noundef @__func__.H5Pset_sym_k, i32 noundef 520, i64 noundef %170, i64 noundef %171, ptr noundef @.str.23)
  br label %173

173:                                              ; preds = %169
  store i8 1, ptr %11, align 1
  %174 = load i8, ptr %11, align 1
  %175 = trunc i8 %174 to i1
  %176 = zext i1 %175 to i8
  store i8 %176, ptr %11, align 1
  br label %177

177:                                              ; preds = %173
  br label %178

178:                                              ; preds = %177
  store i32 -1, ptr %9, align 4
  br label %183

179:                                              ; No predecessors!
  br label %180

180:                                              ; preds = %179
  br label %181

181:                                              ; preds = %180, %162
  br label %182

182:                                              ; preds = %181, %159
  br label %183

183:                                              ; preds = %182, %178, %155, %133, %113, %91, %69, %45
  %184 = load i8, ptr %10, align 1
  %185 = trunc i8 %184 to i1
  %186 = xor i1 %185, true
  %187 = xor i1 %186, true
  %188 = zext i1 %187 to i32
  %189 = sext i32 %188 to i64
  %190 = icmp ne i64 %189, 0
  br i1 %190, label %191, label %193

191:                                              ; preds = %183
  %192 = call i32 @H5CX_pop(i1 noundef zeroext true)
  store i8 0, ptr %10, align 1
  br label %193

193:                                              ; preds = %191, %183
  %194 = load i8, ptr %11, align 1
  %195 = trunc i8 %194 to i1
  %196 = xor i1 %195, true
  %197 = xor i1 %196, true
  %198 = zext i1 %197 to i32
  %199 = sext i32 %198 to i64
  %200 = icmp ne i64 %199, 0
  br i1 %200, label %201, label %203

201:                                              ; preds = %193
  %202 = call i32 @H5E_dump_api_stack()
  br label %203

203:                                              ; preds = %201, %193
  %204 = load i32, ptr %9, align 4
  ret i32 %204
}