; Function Attrs: nounwind uwtable
define range(i32 -1, 1) i32 @H5Pset_sym_k(i64 noundef %0, i32 noundef %1, i32 noundef %2) local_unnamed_addr #0 {
  %4 = alloca i32, align 4
  %5 = alloca [2 x i32], align 4
  store i32 %2, ptr %4, align 4
  %6 = load i8, ptr @H5_libinit_g, align 1
  %7 = trunc i8 %6 to i1
  %8 = load i8, ptr @H5_libterm_g, align 1
  %9 = trunc i8 %8 to i1
  %10 = select i1 %7, i1 true, i1 %9
  br i1 %10, label %18, label %11

11:                                               ; preds = %3
  %12 = tail call i32 @H5_init_library() #6
  %13 = icmp slt i32 %12, 0
  br i1 %13, label %14, label %18

14:                                               ; preds = %11
  %15 = load i64, ptr @H5E_FUNC_g, align 8
  %16 = load i64, ptr @H5E_CANTINIT_g, align 8
  %17 = tail call i32 (ptr, ptr, i32, i64, i64, ptr, ...) @H5E_printf_stack(ptr noundef nonnull @.str.1, ptr noundef nonnull @__func__.H5Pset_sym_k, i32 noundef 501, i64 noundef %15, i64 noundef %16, ptr noundef nonnull @.str.2) #6
  br label %.thread30

18:                                               ; preds = %11, %3
  %19 = tail call i32 @H5CX_push() #6
  %20 = icmp slt i32 %19, 0
  br i1 %20, label %21, label %25

21:                                               ; preds = %18
  %22 = load i64, ptr @H5E_FUNC_g, align 8
  %23 = load i64, ptr @H5E_CANTSET_g, align 8
  %24 = tail call i32 (ptr, ptr, i32, i64, i64, ptr, ...) @H5E_printf_stack(ptr noundef nonnull @.str.1, ptr noundef nonnull @__func__.H5Pset_sym_k, i32 noundef 501, i64 noundef %22, i64 noundef %23, ptr noundef nonnull @.str.3) #6
  br label %.thread30

25:                                               ; preds = %18
  %26 = tail call i32 @H5E_clear_stack() #6
  %27 = load i64, ptr @H5P_CLS_FILE_CREATE_ID_g, align 8
  %28 = tail call ptr @H5P_object_verify(i64 noundef %0, i64 noundef %27) #6
  %29 = icmp eq ptr %28, null
  br i1 %29, label %30, label %34

30:                                               ; preds = %25
  %31 = load i64, ptr @H5E_ID_g, align 8
  %32 = load i64, ptr @H5E_BADID_g, align 8
  %33 = tail call i32 (ptr, ptr, i32, i64, i64, ptr, ...) @H5E_printf_stack(ptr noundef nonnull @.str.1, ptr noundef nonnull @__func__.H5Pset_sym_k, i32 noundef 505, i64 noundef %31, i64 noundef %32, ptr noundef nonnull @.str.6) #6
  br label %.thread36

34:                                               ; preds = %25
  %.not = icmp eq i32 %1, 0
  br i1 %.not, label %55, label %35

35:                                               ; preds = %34
  %36 = and i32 %1, 2147450880
  %.not20 = icmp eq i32 %36, 0
  br i1 %.not20, label %41, label %37

37:                                               ; preds = %35
  %38 = load i64, ptr @H5E_ARGS_g, align 8
  %39 = load i64, ptr @H5E_BADVALUE_g, align 8
  %40 = tail call i32 (ptr, ptr, i32, i64, i64, ptr, ...) @H5E_printf_stack(ptr noundef nonnull @.str.1, ptr noundef nonnull @__func__.H5Pset_sym_k, i32 noundef 510, i64 noundef %38, i64 noundef %39, ptr noundef nonnull @.str.18) #6
  br label %.thread36

41:                                               ; preds = %35
  %42 = call i32 @H5P_get(ptr noundef nonnull %28, ptr noundef nonnull @.str.19, ptr noundef nonnull %5) #6
  %43 = icmp slt i32 %42, 0
  br i1 %43, label %44, label %48

44:                                               ; preds = %41
  %45 = load i64, ptr @H5E_PLIST_g, align 8
  %46 = load i64, ptr @H5E_CANTGET_g, align 8
  %47 = call i32 (ptr, ptr, i32, i64, i64, ptr, ...) @H5E_printf_stack(ptr noundef nonnull @.str.1, ptr noundef nonnull @__func__.H5Pset_sym_k, i32 noundef 513, i64 noundef %45, i64 noundef %46, ptr noundef nonnull @.str.20) #6
  br label %.thread36

48:                                               ; preds = %41
  store i32 %1, ptr %5, align 4
  %49 = call i32 @H5P_set(ptr noundef nonnull %28, ptr noundef nonnull @.str.19, ptr noundef nonnull %5) #6
  %50 = icmp slt i32 %49, 0
  br i1 %50, label %51, label %55

51:                                               ; preds = %48
  %52 = load i64, ptr @H5E_PLIST_g, align 8
  %53 = load i64, ptr @H5E_CANTSET_g, align 8
  %54 = call i32 (ptr, ptr, i32, i64, i64, ptr, ...) @H5E_printf_stack(ptr noundef nonnull @.str.1, ptr noundef nonnull @__func__.H5Pset_sym_k, i32 noundef 516, i64 noundef %52, i64 noundef %53, ptr noundef nonnull @.str.21) #6
  br label %.thread36

55:                                               ; preds = %48, %34
  %.not21 = icmp eq i32 %2, 0
  br i1 %.not21, label %64, label %56

56:                                               ; preds = %55
  %57 = call i32 @H5P_set(ptr noundef nonnull %28, ptr noundef nonnull @.str.22, ptr noundef nonnull %4) #6
  %58 = icmp slt i32 %57, 0
  br i1 %58, label %59, label %64

59:                                               ; preds = %56
  %60 = load i64, ptr @H5E_PLIST_g, align 8
  %61 = load i64, ptr @H5E_CANTSET_g, align 8
  %62 = call i32 (ptr, ptr, i32, i64, i64, ptr, ...) @H5E_printf_stack(ptr noundef nonnull @.str.1, ptr noundef nonnull @__func__.H5Pset_sym_k, i32 noundef 520, i64 noundef %60, i64 noundef %61, ptr noundef nonnull @.str.23) #6
  br label %.thread36

.thread36:                                        ; preds = %59, %51, %44, %37, %30
  %63 = call i32 @H5CX_pop(i1 noundef zeroext true) #6
  br label %.thread30

64:                                               ; preds = %55, %56
  %65 = call i32 @H5CX_pop(i1 noundef zeroext true) #6
  br label %67

.thread30:                                        ; preds = %21, %14, %.thread36
  %66 = call i32 @H5E_dump_api_stack() #6
  br label %67

67:                                               ; preds = %64, %.thread30
  %.0172533 = phi i32 [ -1, %.thread30 ], [ 0, %64 ]
  ret i32 %.0172533
}